target datalayout = "e-m:e-p270:32:32-p271:32:32-p272:64:64-i64:64-i128:128-f80:128-n8:16:32:64-S128"
target triple = "x86_64-pc-linux-gnu"

%struct.strbuf = type { i64, i64, ptr }

@strbuf_slopbuf = external global [0 x i8], align 1
@.str.9 = private unnamed_addr constant [2 x i8] c".\00", align 1
@remove_leading_path.buf = internal global %struct.strbuf { i64 0, i64 0, ptr @strbuf_slopbuf }, align 8
@.str.36 = private unnamed_addr constant [11 x i8] c"./strbuf.h\00", align 1
@.str.37 = private unnamed_addr constant [30 x i8] c"strbuf_setlen() beyond buffer\00", align 1

; Function Attrs: inlinehint nounwind uwtable
define internal void @strbuf_addstr(ptr noundef %0, ptr noundef %1) #2 {
  %3 = alloca ptr, align 8
  %4 = alloca ptr, align 8
  store ptr %0, ptr %3, align 8, !tbaa !8
  store ptr %1, ptr %4, align 8, !tbaa !43
  %5 = load ptr, ptr %3, align 8, !tbaa !8
  %6 = load ptr, ptr %4, align 8, !tbaa !43
  %7 = load ptr, ptr %4, align 8, !tbaa !43
  %8 = call i64 @strlen(ptr noundef %7) #14
  call void @strbuf_add(ptr noundef %5, ptr noundef %6, i64 noundef %8)
  ret void
}

; Function Attrs: inlinehint nounwind uwtable
define internal void @strbuf_setlen(ptr noundef %0, i64 noundef %1) #2 {
  %3 = alloca ptr, align 8
  %4 = alloca i64, align 8
  store ptr %0, ptr %3, align 8, !tbaa !8
  store i64 %1, ptr %4, align 8, !tbaa !11
  %5 = load i64, ptr %4, align 8, !tbaa !11
  %6 = load ptr, ptr %3, align 8, !tbaa !8
  %7 = getelementptr inbounds nuw %struct.strbuf, ptr %6, i32 0, i32 0
  %8 = load i64, ptr %7, align 8, !tbaa !13
  %9 = icmp ne i64 %8, 0
  br i1 %9, label %10, label %15

10:                                               ; preds = %2
  %11 = load ptr, ptr %3, align 8, !tbaa !8
  %12 = getelementptr inbounds nuw %struct.strbuf, ptr %11, i32 0, i32 0
  %13 = load i64, ptr %12, align 8, !tbaa !13
  %14 = sub i64 %13, 1
  br label %16

15:                                               ; preds = %2
  br label %16

16:                                               ; preds = %15, %10
  %17 = phi i64 [ %14, %10 ], [ 0, %15 ]
  %18 = icmp ugt i64 %5, %17
  br i1 %18, label %19, label %20

19:                                               ; preds = %16
  call void (ptr, i32, ptr, ...) @BUG_fl(ptr noundef @.str.36, i32 noundef 167, ptr noundef @.str.37) #13
  unreachable

20:                                               ; preds = %16
  %21 = load i64, ptr %4, align 8, !tbaa !11
  %22 = load ptr, ptr %3, align 8, !tbaa !8
  %23 = getelementptr inbounds nuw %struct.strbuf, ptr %22, i32 0, i32 1
  store i64 %21, ptr %23, align 8, !tbaa !16
  %24 = load ptr, ptr %3, align 8, !tbaa !8
  %25 = getelementptr inbounds nuw %struct.strbuf, ptr %24, i32 0, i32 2
  %26 = load ptr, ptr %25, align 8, !tbaa !17
  %27 = icmp ne ptr %26, @strbuf_slopbuf
  br i1 %27, label %28, label %34

28:                                               ; preds = %20
  %29 = load ptr, ptr %3, align 8, !tbaa !8
  %30 = getelementptr inbounds nuw %struct.strbuf, ptr %29, i32 0, i32 2
  %31 = load ptr, ptr %30, align 8, !tbaa !17
  %32 = load i64, ptr %4, align 8, !tbaa !11
  %33 = getelementptr inbounds nuw i8, ptr %31, i64 %32
  store i8 0, ptr %33, align 1, !tbaa !18
  br label %35

34:                                               ; preds = %20
  br label %35

35:                                               ; preds = %34, %28
  ret void
}

; Function Attrs: inlinehint nounwind uwtable
define internal i32 @git_is_dir_sep(i32 noundef %0) #2 {
  %2 = alloca i32, align 4
  store i32 %0, ptr %2, align 4, !tbaa !4
  %3 = load i32, ptr %2, align 4, !tbaa !4
  %4 = icmp eq i32 %3, 47
  %5 = zext i1 %4 to i32
  ret i32 %5
}

; Function Attrs: nounwind uwtable
define dso_local ptr @remove_leading_path(ptr noundef %0, ptr noundef %1) #0 {
  %3 = alloca ptr, align 8
  %4 = alloca ptr, align 8
  %5 = alloca ptr, align 8
  %6 = alloca i32, align 4
  %7 = alloca i32, align 4
  %8 = alloca i32, align 4
  store ptr %0, ptr %4, align 8, !tbaa !43
  store ptr %1, ptr %5, align 8, !tbaa !43
  call void @llvm.lifetime.start.p0(i64 4, ptr %6) #12
  store i32 0, ptr %6, align 4, !tbaa !4
  call void @llvm.lifetime.start.p0(i64 4, ptr %7) #12
  store i32 0, ptr %7, align 4, !tbaa !4
  %9 = load ptr, ptr %5, align 8, !tbaa !43
  %10 = icmp ne ptr %9, null
  br i1 %10, label %11, label %16

11:                                               ; preds = %2
  %12 = load ptr, ptr %5, align 8, !tbaa !43
  %13 = getelementptr inbounds i8, ptr %12, i64 0
  %14 = load i8, ptr %13, align 1, !tbaa !18
  %15 = icmp ne i8 %14, 0
  br i1 %15, label %18, label %16

16:                                               ; preds = %11, %2
  %17 = load ptr, ptr %4, align 8, !tbaa !43
  store ptr %17, ptr %3, align 8
  store i32 1, ptr %8, align 4
  br label %152

18:                                               ; preds = %11
  br label %19

19:                                               ; preds = %90, %72, %18
  %20 = load ptr, ptr %5, align 8, !tbaa !43
  %21 = load i32, ptr %6, align 4, !tbaa !4
  %22 = sext i32 %21 to i64
  %23 = getelementptr inbounds i8, ptr %20, i64 %22
  %24 = load i8, ptr %23, align 1, !tbaa !18
  %25 = icmp ne i8 %24, 0
  br i1 %25, label %26, label %95

26:                                               ; preds = %19
  %27 = load ptr, ptr %5, align 8, !tbaa !43
  %28 = load i32, ptr %6, align 4, !tbaa !4
  %29 = sext i32 %28 to i64
  %30 = getelementptr inbounds i8, ptr %27, i64 %29
  %31 = load i8, ptr %30, align 1, !tbaa !18
  %32 = sext i8 %31 to i32
  %33 = call i32 @git_is_dir_sep(i32 noundef %32)
  %34 = icmp ne i32 %33, 0
  br i1 %34, label %35, label %73

35:                                               ; preds = %26
  %36 = load ptr, ptr %4, align 8, !tbaa !43
  %37 = load i32, ptr %7, align 4, !tbaa !4
  %38 = sext i32 %37 to i64
  %39 = getelementptr inbounds i8, ptr %36, i64 %38
  %40 = load i8, ptr %39, align 1, !tbaa !18
  %41 = sext i8 %40 to i32
  %42 = call i32 @git_is_dir_sep(i32 noundef %41)
  %43 = icmp ne i32 %42, 0
  br i1 %43, label %46, label %44

44:                                               ; preds = %35
  %45 = load ptr, ptr %4, align 8, !tbaa !43
  store ptr %45, ptr %3, align 8
  store i32 1, ptr %8, align 4
  br label %152

46:                                               ; preds = %35
  br label %47

47:                                               ; preds = %56, %46
  %48 = load ptr, ptr %5, align 8, !tbaa !43
  %49 = load i32, ptr %6, align 4, !tbaa !4
  %50 = sext i32 %49 to i64
  %51 = getelementptr inbounds i8, ptr %48, i64 %50
  %52 = load i8, ptr %51, align 1, !tbaa !18
  %53 = sext i8 %52 to i32
  %54 = call i32 @git_is_dir_sep(i32 noundef %53)
  %55 = icmp ne i32 %54, 0
  br i1 %55, label %56, label %59

56:                                               ; preds = %47
  %57 = load i32, ptr %6, align 4, !tbaa !4
  %58 = add nsw i32 %57, 1
  store i32 %58, ptr %6, align 4, !tbaa !4
  br label %47, !llvm.loop !99

59:                                               ; preds = %47
  br label %60

60:                                               ; preds = %69, %59
  %61 = load ptr, ptr %4, align 8, !tbaa !43
  %62 = load i32, ptr %7, align 4, !tbaa !4
  %63 = sext i32 %62 to i64
  %64 = getelementptr inbounds i8, ptr %61, i64 %63
  %65 = load i8, ptr %64, align 1, !tbaa !18
  %66 = sext i8 %65 to i32
  %67 = call i32 @git_is_dir_sep(i32 noundef %66)
  %68 = icmp ne i32 %67, 0
  br i1 %68, label %69, label %72

69:                                               ; preds = %60
  %70 = load i32, ptr %7, align 4, !tbaa !4
  %71 = add nsw i32 %70, 1
  store i32 %71, ptr %7, align 4, !tbaa !4
  br label %60, !llvm.loop !100

72:                                               ; preds = %60
  br label %19, !llvm.loop !101

73:                                               ; preds = %26
  %74 = load ptr, ptr %4, align 8, !tbaa !43
  %75 = load i32, ptr %7, align 4, !tbaa !4
  %76 = sext i32 %75 to i64
  %77 = getelementptr inbounds i8, ptr %74, i64 %76
  %78 = load i8, ptr %77, align 1, !tbaa !18
  %79 = sext i8 %78 to i32
  %80 = load ptr, ptr %5, align 8, !tbaa !43
  %81 = load i32, ptr %6, align 4, !tbaa !4
  %82 = sext i32 %81 to i64
  %83 = getelementptr inbounds i8, ptr %80, i64 %82
  %84 = load i8, ptr %83, align 1, !tbaa !18
  %85 = sext i8 %84 to i32
  %86 = icmp ne i32 %79, %85
  br i1 %86, label %87, label %89

87:                                               ; preds = %73
  %88 = load ptr, ptr %4, align 8, !tbaa !43
  store ptr %88, ptr %3, align 8
  store i32 1, ptr %8, align 4
  br label %152

89:                                               ; preds = %73
  br label %90

90:                                               ; preds = %89
  %91 = load i32, ptr %6, align 4, !tbaa !4
  %92 = add nsw i32 %91, 1
  store i32 %92, ptr %6, align 4, !tbaa !4
  %93 = load i32, ptr %7, align 4, !tbaa !4
  %94 = add nsw i32 %93, 1
  store i32 %94, ptr %7, align 4, !tbaa !4
  br label %19, !llvm.loop !101

95:                                               ; preds = %19
  %96 = load ptr, ptr %4, align 8, !tbaa !43
  %97 = load i32, ptr %7, align 4, !tbaa !4
  %98 = sext i32 %97 to i64
  %99 = getelementptr inbounds i8, ptr %96, i64 %98
  %100 = load i8, ptr %99, align 1, !tbaa !18
  %101 = sext i8 %100 to i32
  %102 = icmp ne i32 %101, 0
  br i1 %102, label %103, label %124

103:                                              ; preds = %95
  %104 = load ptr, ptr %5, align 8, !tbaa !43
  %105 = load i32, ptr %6, align 4, !tbaa !4
  %106 = sub nsw i32 %105, 1
  %107 = sext i32 %106 to i64
  %108 = getelementptr inbounds i8, ptr %104, i64 %107
  %109 = load i8, ptr %108, align 1, !tbaa !18
  %110 = sext i8 %109 to i32
  %111 = call i32 @git_is_dir_sep(i32 noundef %110)
  %112 = icmp ne i32 %111, 0
  br i1 %112, label %124, label %113

113:                                              ; preds = %103
  %114 = load ptr, ptr %4, align 8, !tbaa !43
  %115 = load i32, ptr %7, align 4, !tbaa !4
  %116 = sext i32 %115 to i64
  %117 = getelementptr inbounds i8, ptr %114, i64 %116
  %118 = load i8, ptr %117, align 1, !tbaa !18
  %119 = sext i8 %118 to i32
  %120 = call i32 @git_is_dir_sep(i32 noundef %119)
  %121 = icmp ne i32 %120, 0
  br i1 %121, label %124, label %122

122:                                              ; preds = %113
  %123 = load ptr, ptr %4, align 8, !tbaa !43
  store ptr %123, ptr %3, align 8
  store i32 1, ptr %8, align 4
  br label %152

124:                                              ; preds = %113, %103, %95
  br label %125

125:                                              ; preds = %134, %124
  %126 = load ptr, ptr %4, align 8, !tbaa !43
  %127 = load i32, ptr %7, align 4, !tbaa !4
  %128 = sext i32 %127 to i64
  %129 = getelementptr inbounds i8, ptr %126, i64 %128
  %130 = load i8, ptr %129, align 1, !tbaa !18
  %131 = sext i8 %130 to i32
  %132 = call i32 @git_is_dir_sep(i32 noundef %131)
  %133 = icmp ne i32 %132, 0
  br i1 %133, label %134, label %137

134:                                              ; preds = %125
  %135 = load i32, ptr %7, align 4, !tbaa !4
  %136 = add nsw i32 %135, 1
  store i32 %136, ptr %7, align 4, !tbaa !4
  br label %125, !llvm.loop !102

137:                                              ; preds = %125
  call void @strbuf_setlen(ptr noundef @remove_leading_path.buf, i64 noundef 0)
  %138 = load ptr, ptr %4, align 8, !tbaa !43
  %139 = load i32, ptr %7, align 4, !tbaa !4
  %140 = sext i32 %139 to i64
  %141 = getelementptr inbounds i8, ptr %138, i64 %140
  %142 = load i8, ptr %141, align 1, !tbaa !18
  %143 = icmp ne i8 %142, 0
  br i1 %143, label %145, label %144

144:                                              ; preds = %137
  call void @strbuf_addstr(ptr noundef @remove_leading_path.buf, ptr noundef @.str.9)
  br label %150

145:                                              ; preds = %137
  %146 = load ptr, ptr %4, align 8, !tbaa !43
  %147 = load i32, ptr %7, align 4, !tbaa !4
  %148 = sext i32 %147 to i64
  %149 = getelementptr inbounds i8, ptr %146, i64 %148
  call void @strbuf_addstr(ptr noundef @remove_leading_path.buf, ptr noundef %149)
  br label %150

150:                                              ; preds = %145, %144
  %151 = load ptr, ptr getelementptr inbounds nuw (%struct.strbuf, ptr @remove_leading_path.buf, i32 0, i32 2), align 8, !tbaa !17
  store ptr %151, ptr %3, align 8
  store i32 1, ptr %8, align 4
  br label %152

152:                                              ; preds = %150, %122, %87, %44, %16
  call void @llvm.lifetime.end.p0(i64 4, ptr %7) #12
  call void @llvm.lifetime.end.p0(i64 4, ptr %6) #12
  %153 = load ptr, ptr %3, align 8
  ret ptr %153
}