; Function Attrs: nounwind uwtable
define dso_local ptr @remove_leading_path(ptr noundef %0, ptr noundef readonly %1) local_unnamed_addr #3 {
  %.not = icmp eq ptr %1, null
  br i1 %.not, label %.loopexit63, label %3

3:                                                ; preds = %2
  %4 = load i8, ptr %1, align 1, !tbaa !14
  %.not42 = icmp eq i8 %4, 0
  br i1 %.not42, label %.loopexit63, label %.preheader62

.preheader62:                                     ; preds = %3, %.backedge
  %5 = phi i8 [ %.pre, %.backedge ], [ %4, %3 ]
  %.037 = phi i32 [ %.037.be, %.backedge ], [ 0, %3 ]
  %.0 = phi i32 [ %.0.be, %.backedge ], [ 0, %3 ]
  %6 = sext i32 %.037 to i64
  %7 = sext i32 %.0 to i64
  %8 = getelementptr inbounds i8, ptr %0, i64 %7
  %9 = load i8, ptr %8, align 1, !tbaa !14
  switch i8 %5, label %15 [
    i8 0, label %21
    i8 47, label %10
  ]

10:                                               ; preds = %.preheader62
  %.not55 = icmp eq i8 %9, 47
  br i1 %.not55, label %.preheader61, label %.loopexit63

.preheader61:                                     ; preds = %10, %.preheader61
  %indvars.iv = phi i64 [ %indvars.iv.next, %.preheader61 ], [ %6, %10 ]
  %11 = getelementptr inbounds i8, ptr %1, i64 %indvars.iv
  %12 = load i8, ptr %11, align 1, !tbaa !14
  %.not56 = icmp eq i8 %12, 47
  %indvars.iv.next = add nsw i64 %indvars.iv, 1
  br i1 %.not56, label %.preheader61, label %.preheader, !llvm.loop !84

.preheader:                                       ; preds = %.preheader61, %.preheader
  %indvars.iv73 = phi i64 [ %indvars.iv.next74, %.preheader ], [ %7, %.preheader61 ]
  %13 = getelementptr inbounds i8, ptr %0, i64 %indvars.iv73
  %14 = load i8, ptr %13, align 1, !tbaa !14
  %.not57 = icmp eq i8 %14, 47
  %indvars.iv.next74 = add nsw i64 %indvars.iv73, 1
  br i1 %.not57, label %.preheader, label %.backedge.loopexit, !llvm.loop !85

15:                                               ; preds = %.preheader62
  %.not50 = icmp eq i8 %9, %5
  br i1 %.not50, label %16, label %.loopexit63

16:                                               ; preds = %15
  %17 = add nsw i32 %.037, 1
  %18 = add nsw i32 %.0, 1
  br label %.backedge

.backedge.loopexit:                               ; preds = %.preheader
  %19 = trunc nsw i64 %indvars.iv to i32
  %20 = trunc nsw i64 %indvars.iv73 to i32
  br label %.backedge

.backedge:                                        ; preds = %.backedge.loopexit, %16
  %.037.be = phi i32 [ %17, %16 ], [ %19, %.backedge.loopexit ]
  %.0.be = phi i32 [ %18, %16 ], [ %20, %.backedge.loopexit ]
  %.phi.trans.insert = sext i32 %.037.be to i64
  %.phi.trans.insert81 = getelementptr inbounds i8, ptr %1, i64 %.phi.trans.insert
  %.pre = load i8, ptr %.phi.trans.insert81, align 1, !tbaa !14
  br label %.preheader62, !llvm.loop !86

21:                                               ; preds = %.preheader62
  %.not44 = icmp eq i8 %9, 0
  br i1 %.not44, label %.preheader88, label %22

22:                                               ; preds = %21
  %23 = getelementptr inbounds i8, ptr %1, i64 %6
  %24 = getelementptr i8, ptr %23, i64 -1
  %25 = load i8, ptr %24, align 1, !tbaa !14
  %.not58 = icmp eq i8 %25, 47
  %.not59 = icmp eq i8 %9, 47
  %or.cond = or i1 %.not59, %.not58
  br i1 %or.cond, label %.preheader88, label %.loopexit63

.preheader88:                                     ; preds = %22, %21
  br label %26

26:                                               ; preds = %.preheader88, %26
  %indvars.iv78 = phi i64 [ %indvars.iv.next79, %26 ], [ %7, %.preheader88 ]
  %27 = getelementptr inbounds i8, ptr %0, i64 %indvars.iv78
  %28 = load i8, ptr %27, align 1, !tbaa !14
  %.not60 = icmp eq i8 %28, 47
  %indvars.iv.next79 = add nsw i64 %indvars.iv78, 1
  br i1 %.not60, label %26, label %29, !llvm.loop !87

29:                                               ; preds = %26
  %30 = getelementptr inbounds i8, ptr %0, i64 %indvars.iv78
  store i64 0, ptr getelementptr inbounds nuw (i8, ptr @remove_leading_path.buf, i64 8), align 8, !tbaa !8
  %31 = load ptr, ptr getelementptr inbounds nuw (i8, ptr @remove_leading_path.buf, i64 16), align 8, !tbaa !13
  %.not9.i = icmp eq ptr %31, @strbuf_slopbuf
  br i1 %.not9.i, label %strbuf_setlen.exit, label %32

32:                                               ; preds = %29
  store i8 0, ptr %31, align 1, !tbaa !14
  br label %strbuf_setlen.exit

strbuf_setlen.exit:                               ; preds = %29, %32
  %33 = load i8, ptr %30, align 1, !tbaa !14
  %.not48 = icmp eq i8 %33, 0
  br i1 %.not48, label %34, label %35

34:                                               ; preds = %strbuf_setlen.exit
  tail call void @strbuf_add(ptr noundef nonnull @remove_leading_path.buf, ptr noundef nonnull @.str.9, i64 noundef 1) #29
  br label %37

35:                                               ; preds = %strbuf_setlen.exit
  %36 = tail call i64 @strlen(ptr noundef nonnull dereferenceable(1) %30) #30
  tail call void @strbuf_add(ptr noundef nonnull @remove_leading_path.buf, ptr noundef nonnull %30, i64 noundef %36) #29
  br label %37

37:                                               ; preds = %35, %34
  %38 = load ptr, ptr getelementptr inbounds nuw (i8, ptr @remove_leading_path.buf, i64 16), align 8, !tbaa !13
  br label %.loopexit63

.loopexit63:                                      ; preds = %15, %10, %22, %2, %3, %37
  %.039 = phi ptr [ %38, %37 ], [ %0, %3 ], [ %0, %2 ], [ %0, %22 ], [ %0, %10 ], [ %0, %15 ]
  ret ptr %.039
}